; Function Attrs: inlinehint mustprogress optsize uwtable
define internal noundef ptr @"_ZZN8nanobind6detail11func_createILb0ELb1EZL32nanobind_init_test_intrusive_extRNS_7module_EE3$_4iJRKNS_3refI4TestEEEJLm0EEJNS_5scopeENS_4nameEEEEP7_objectOT1_PFT2_DpT3_ESt16integer_sequenceImJXspT4_EEEDpRKT5_ENUlPvPSD_PhNS_9rv_policyEPNS0_12cleanup_listEE_8__invokeESR_SS_ST_SU_SW_"(ptr readnone captures(none) %0, ptr noundef readonly captures(none) %1, ptr noundef readonly captures(none) %2, i32 %3, ptr noundef %4) #10 align 2 personality ptr @__gxx_personality_v0 {
  %6 = alloca %"struct.nanobind::detail::tuple.56", align 8
  call void @llvm.lifetime.start.p0(i64 8, ptr nonnull %6) #17
  store ptr null, ptr %6, align 8, !tbaa !52
  %7 = load ptr, ptr %1, align 8, !tbaa !44
  %8 = load i8, ptr %2, align 1, !tbaa !39
  %9 = call noundef zeroext i1 @_ZN8nanobind6detail11type_casterINS_3refI4TestEEiE11from_pythonENS_6handleEhPNS0_12cleanup_listE(ptr noundef nonnull align 8 dereferenceable(8) %6, ptr %7, i8 noundef zeroext %8, ptr noundef %4) #18
  br i1 %9, label %10, label %"_ZZN8nanobind6detail11func_createILb0ELb1EZL32nanobind_init_test_intrusive_extRNS_7module_EE3$_4iJRKNS_3refI4TestEEEJLm0EEJNS_5scopeENS_4nameEEEEP7_objectOT1_PFT2_DpT3_ESt16integer_sequenceImJXspT4_EEEDpRKT5_ENKUlPvPSD_PhNS_9rv_policyEPNS0_12cleanup_listEE_clESR_SS_ST_SU_SW_.exit"

10:                                               ; preds = %5
  %.val = load ptr, ptr %6, align 8, !tbaa !52
  %11 = load ptr, ptr %.val, align 8, !tbaa !45
  %12 = getelementptr inbounds nuw i8, ptr %11, i64 16
  %13 = load ptr, ptr %12, align 8
  %14 = invoke noundef i32 %13(ptr noundef nonnull align 8 dereferenceable(16) %.val, i32 noundef 3) #16
          to label %"_ZZL32nanobind_init_test_intrusive_extRN8nanobind7module_EENK3$_4clERKNS_3refI4TestEE.exit" unwind label %20

"_ZZL32nanobind_init_test_intrusive_extRN8nanobind7module_EENK3$_4clERKNS_3refI4TestEE.exit": ; preds = %10
  %15 = sext i32 %14 to i64
  %16 = invoke ptr @PyLong_FromLong(i64 noundef %15) #16
          to label %"_ZZN8nanobind6detail11func_createILb0ELb1EZL32nanobind_init_test_intrusive_extRNS_7module_EE3$_4iJRKNS_3refI4TestEEEJLm0EEJNS_5scopeENS_4nameEEEEP7_objectOT1_PFT2_DpT3_ESt16integer_sequenceImJXspT4_EEEDpRKT5_ENKUlPvPSD_PhNS_9rv_policyEPNS0_12cleanup_listEE_clESR_SS_ST_SU_SW_.exit" unwind label %17

17:                                               ; preds = %"_ZZL32nanobind_init_test_intrusive_extRN8nanobind7module_EENK3$_4clERKNS_3refI4TestEE.exit"
  %18 = landingpad { ptr, i32 }
          catch ptr null
  %19 = extractvalue { ptr, i32 } %18, 0
  call void @__clang_call_terminate(ptr %19) #19
  unreachable

20:                                               ; preds = %10
  %21 = landingpad { ptr, i32 }
          cleanup
  %22 = load ptr, ptr %6, align 8, !tbaa !52
  %.not.i.i.i.i = icmp eq ptr %22, null
  br i1 %.not.i.i.i.i, label %_ZN8nanobind6detail5tupleIJNS0_11type_casterINS_3refI4TestEEiEEEED2Ev.exit, label %23

23:                                               ; preds = %20
  %24 = getelementptr inbounds nuw i8, ptr %22, i64 8
  %25 = call noundef zeroext i1 @_ZNK8nanobind17intrusive_counter7dec_refEv(ptr noundef nonnull align 8 dereferenceable(8) %24) #18
  br i1 %25, label %26, label %_ZN8nanobind6detail5tupleIJNS0_11type_casterINS_3refI4TestEEiEEEED2Ev.exit

26:                                               ; preds = %23
  %27 = load ptr, ptr %22, align 8, !tbaa !45
  %28 = getelementptr inbounds nuw i8, ptr %27, i64 8
  %29 = load ptr, ptr %28, align 8
  call void %29(ptr noundef nonnull align 8 dereferenceable(16) %22) #18
  br label %_ZN8nanobind6detail5tupleIJNS0_11type_casterINS_3refI4TestEEiEEEED2Ev.exit

_ZN8nanobind6detail5tupleIJNS0_11type_casterINS_3refI4TestEEiEEEED2Ev.exit: ; preds = %20, %23, %26
  call void @llvm.lifetime.end.p0(i64 8, ptr nonnull %6) #17
  resume { ptr, i32 } %21

"_ZZN8nanobind6detail11func_createILb0ELb1EZL32nanobind_init_test_intrusive_extRNS_7module_EE3$_4iJRKNS_3refI4TestEEEJLm0EEJNS_5scopeENS_4nameEEEEP7_objectOT1_PFT2_DpT3_ESt16integer_sequenceImJXspT4_EEEDpRKT5_ENKUlPvPSD_PhNS_9rv_policyEPNS0_12cleanup_listEE_clESR_SS_ST_SU_SW_.exit": ; preds = %"_ZZL32nanobind_init_test_intrusive_extRN8nanobind7module_EENK3$_4clERKNS_3refI4TestEE.exit", %5
  %.0.i = phi ptr [ inttoptr (i64 1 to ptr), %5 ], [ %16, %"_ZZL32nanobind_init_test_intrusive_extRN8nanobind7module_EENK3$_4clERKNS_3refI4TestEE.exit" ]
  %30 = load ptr, ptr %6, align 8, !tbaa !52
  %.not.i.i.i.i4 = icmp eq ptr %30, null
  br i1 %.not.i.i.i.i4, label %_ZN8nanobind6detail5tupleIJNS0_11type_casterINS_3refI4TestEEiEEEED2Ev.exit5, label %31

31:                                               ; preds = %"_ZZN8nanobind6detail11func_createILb0ELb1EZL32nanobind_init_test_intrusive_extRNS_7module_EE3$_4iJRKNS_3refI4TestEEEJLm0EEJNS_5scopeENS_4nameEEEEP7_objectOT1_PFT2_DpT3_ESt16integer_sequenceImJXspT4_EEEDpRKT5_ENKUlPvPSD_PhNS_9rv_policyEPNS0_12cleanup_listEE_clESR_SS_ST_SU_SW_.exit"
  %32 = getelementptr inbounds nuw i8, ptr %30, i64 8
  %33 = call noundef zeroext i1 @_ZNK8nanobind17intrusive_counter7dec_refEv(ptr noundef nonnull align 8 dereferenceable(8) %32) #18
  br i1 %33, label %34, label %_ZN8nanobind6detail5tupleIJNS0_11type_casterINS_3refI4TestEEiEEEED2Ev.exit5

34:                                               ; preds = %31
  %35 = load ptr, ptr %30, align 8, !tbaa !45
  %36 = getelementptr inbounds nuw i8, ptr %35, i64 8
  %37 = load ptr, ptr %36, align 8
  call void %37(ptr noundef nonnull align 8 dereferenceable(16) %30) #18
  br label %_ZN8nanobind6detail5tupleIJNS0_11type_casterINS_3refI4TestEEiEEEED2Ev.exit5

_ZN8nanobind6detail5tupleIJNS0_11type_casterINS_3refI4TestEEiEEEED2Ev.exit5: ; preds = %"_ZZN8nanobind6detail11func_createILb0ELb1EZL32nanobind_init_test_intrusive_extRNS_7module_EE3$_4iJRKNS_3refI4TestEEEJLm0EEJNS_5scopeENS_4nameEEEEP7_objectOT1_PFT2_DpT3_ESt16integer_sequenceImJXspT4_EEEDpRKT5_ENKUlPvPSD_PhNS_9rv_policyEPNS0_12cleanup_listEE_clESR_SS_ST_SU_SW_.exit", %31, %34
  call void @llvm.lifetime.end.p0(i64 8, ptr nonnull %6) #17
  ret ptr %.0.i
}